target datalayout = "e-m:e-p270:32:32-p271:32:32-p272:64:64-i64:64-i128:128-f80:128-n8:16:32:64-S128"
target triple = "x86_64-pc-linux-gnu"

; Function Attrs: mustprogress uwtable
define internal noundef i32 @_ZL10math_frexpP9lua_State(ptr noundef %0) #2 {
  %2 = alloca ptr, align 8
  %3 = alloca i32, align 4
  store ptr %0, ptr %2, align 8, !tbaa !20
  call void @llvm.lifetime.start.p0(i64 4, ptr %3) #11
  %4 = load ptr, ptr %2, align 8, !tbaa !20
  %5 = load ptr, ptr %2, align 8, !tbaa !20
  %6 = call noundef double @_Z16luaL_checknumberP9lua_Statei(ptr noundef %5, i32 noundef 1)
  %7 = call double @frexp(double noundef %6, ptr noundef %3) #11
  call void @_Z14lua_pushnumberP9lua_Stated(ptr noundef %4, double noundef %7)
  %8 = load ptr, ptr %2, align 8, !tbaa !20
  %9 = load i32, ptr %3, align 4, !tbaa !39
  call void @_Z15lua_pushintegerP9lua_Statei(ptr noundef %8, i32 noundef %9)
  call void @llvm.lifetime.end.p0(i64 4, ptr %3) #11
  ret i32 2
}