; Function Attrs: mustprogress uwtable
define internal noundef i32 @_ZL10math_frexpP9lua_State(ptr noundef %0) #0 {
  %2 = alloca i32, align 4
  call void @llvm.lifetime.start.p0(i64 4, ptr nonnull %2) #10
  %3 = tail call noundef double @_Z16luaL_checknumberP9lua_Statei(ptr noundef %0, i32 noundef 1)
  %4 = call double @frexp(double noundef %3, ptr noundef nonnull %2) #10
  tail call void @_Z14lua_pushnumberP9lua_Stated(ptr noundef %0, double noundef %4)
  %5 = load i32, ptr %2, align 4, !tbaa !27
  tail call void @_Z15lua_pushintegerP9lua_Statei(ptr noundef %0, i32 noundef %5)
  call void @llvm.lifetime.end.p0(i64 4, ptr nonnull %2) #10
  ret i32 2
}